; ModuleID = '40/2947.c'
source_filename = "40/2947.c"
target datalayout = "e-m:e-p270:32:32-p271:32:32-p272:64:64-i64:64-f80:128-n8:16:32:64-S128"
target triple = "x86_64-pc-linux-gnu"

@.str = private unnamed_addr constant [4 x i8] c"%lf\00", align 1
@.str.1 = private unnamed_addr constant [14 x i8] c"Invalid input\00", align 1
@.str.2 = private unnamed_addr constant [7 x i8] c"%.4lf\0A\00", align 1

; Function Attrs: noinline nounwind uwtable
define dso_local i32 @main() #0 {
  %1 = alloca i32, align 4
  %2 = alloca double, align 8
  %3 = alloca double, align 8
  %4 = alloca double, align 8
  %5 = alloca double, align 8
  %6 = alloca double, align 8
  %7 = alloca double, align 8
  %8 = alloca double, align 8
  %9 = alloca double, align 8
  store i32 0, i32* %1, align 4
  %10 = call i32 (i8*, ...) @__isoc99_scanf(i8* getelementptr inbounds ([4 x i8], [4 x i8]* @.str, i64 0, i64 0), double* %2)
  %11 = call i32 (i8*, ...) @__isoc99_scanf(i8* getelementptr inbounds ([4 x i8], [4 x i8]* @.str, i64 0, i64 0), double* %3)
  %12 = call i32 (i8*, ...) @__isoc99_scanf(i8* getelementptr inbounds ([4 x i8], [4 x i8]* @.str, i64 0, i64 0), double* %4)
  %13 = call i32 (i8*, ...) @__isoc99_scanf(i8* getelementptr inbounds ([4 x i8], [4 x i8]* @.str, i64 0, i64 0), double* %5)
  %14 = call i32 (i8*, ...) @__isoc99_scanf(i8* getelementptr inbounds ([4 x i8], [4 x i8]* @.str, i64 0, i64 0), double* %6)
  %15 = load double, double* %2, align 8
  %16 = load double, double* %3, align 8
  %17 = fadd double %15, %16
  %18 = load double, double* %4, align 8
  %19 = fadd double %17, %18
  %20 = load double, double* %5, align 8
  %21 = fadd double %19, %20
  %22 = fdiv double %21, 2.000000e+00
  store double %22, double* %7, align 8
  %23 = load double, double* %6, align 8
  %24 = fdiv double %23, 2.000000e+00
  %25 = fdiv double %24, 1.800000e+02
  %26 = fmul double %25, 0x400921FB4D12D84A
  %27 = call double @cos(double %26) #3
  store double %27, double* %9, align 8
  %28 = load double, double* %7, align 8
  %29 = load double, double* %2, align 8
  %30 = fsub double %28, %29
  %31 = load double, double* %7, align 8
  %32 = load double, double* %3, align 8
  %33 = fsub double %31, %32
  %34 = fmul double %30, %33
  %35 = load double, double* %7, align 8
  %36 = load double, double* %4, align 8
  %37 = fsub double %35, %36
  %38 = fmul double %34, %37
  %39 = load double, double* %7, align 8
  %40 = load double, double* %5, align 8
  %41 = fsub double %39, %40
  %42 = fmul double %38, %41
  %43 = load double, double* %2, align 8
  %44 = load double, double* %3, align 8
  %45 = fmul double %43, %44
  %46 = load double, double* %4, align 8
  %47 = fmul double %45, %46
  %48 = load double, double* %5, align 8
  %49 = fmul double %47, %48
  %50 = load double, double* %9, align 8
  %51 = fmul double %49, %50
  %52 = load double, double* %9, align 8
  %53 = fmul double %51, %52
  %54 = fsub double %42, %53
  store double %54, double* %8, align 8
  %55 = load double, double* %8, align 8
  %56 = fcmp olt double %55, 0.000000e+00
  br i1 %56, label %57, label %59

57:                                               ; preds = %0
  %58 = call i32 (i8*, ...) @printf(i8* getelementptr inbounds ([14 x i8], [14 x i8]* @.str.1, i64 0, i64 0))
  br label %63

59:                                               ; preds = %0
  %60 = load double, double* %8, align 8
  %61 = call double @sqrt(double %60) #3
  %62 = call i32 (i8*, ...) @printf(i8* getelementptr inbounds ([7 x i8], [7 x i8]* @.str.2, i64 0, i64 0), double %61)
  br label %63

63:                                               ; preds = %59, %57
  %64 = load i32, i32* %1, align 4
  ret i32 %64
}

declare dso_local i32 @__isoc99_scanf(i8*, ...) #1

; Function Attrs: nounwind
declare dso_local double @cos(double) #2

declare dso_local i32 @printf(i8*, ...) #1

; Function Attrs: nounwind
declare dso_local double @sqrt(double) #2


!llvm.module.flags = !{!0}
!llvm.ident = !{!1}

!0 = !{i32 1, !"wchar_size", i32 4}
!1 = !{!"clang version 10.0.0-4ubuntu1 "}
